; Function Attrs: mustprogress nounwind uwtable
define internal void @_ZN12_GLOBAL__N_117CodeGeneratorImpl22AssignInheritanceModelEPN5clang13CXXRecordDeclE(ptr nocapture noundef nonnull readonly align 8 dereferenceable(176) %0, ptr noundef %1) unnamed_addr #4 align 2 {
  %3 = getelementptr inbounds nuw i8, ptr %0, i64 16
  %4 = load ptr, ptr %3, align 8
  %5 = getelementptr inbounds nuw i8, ptr %4, i64 194
  %6 = load i8, ptr %5, align 2
  %7 = trunc i8 %6 to i1
  %8 = getelementptr inbounds nuw i8, ptr %4, i64 195
  %9 = load i8, ptr %8, align 1
  %10 = trunc i8 %9 to i1
  %11 = select i1 %7, i1 true, i1 %10
  br i1 %11, label %15, label %12

12:                                               ; preds = %2
  %13 = getelementptr inbounds nuw i8, ptr %0, i64 88
  %14 = load ptr, ptr %13, align 8
  tail call void @_ZN5clang7CodeGen13CodeGenModule24RefreshTypeCacheForClassEPKNS_13CXXRecordDeclE(ptr noundef nonnull align 8 dereferenceable(3600) %14, ptr noundef %1) #12
  br label %15

15:                                               ; preds = %2, %12
  ret void
}